target datalayout = "e-m:e-p270:32:32-p271:32:32-p272:64:64-i64:64-i128:128-f80:128-n8:16:32:64-S128"
target triple = "x86_64-pc-linux-gnu"

%struct._packet_info = type { ptr, ptr, i32, i32, %struct.nstime_t, %struct.nstime_t, %struct.nstime_t, i8, ptr, ptr, ptr, ptr, %struct._address, %struct._address, %struct._address, %struct._address, %struct._address, %struct._address, i32, ptr, i8, [3 x i8], %struct.anon, i32, i32, i32, i32, ptr, i8, ptr, ptr, i16, i16, i32, i32, i16, i32, i32, ptr, ptr, ptr, i8, i8, i16, i16, i16, i32, i16, i16, ptr, ptr, ptr, ptr, ptr, i32, i32 }
%struct.nstime_t = type { i64, i32 }
%struct._address = type { i32, i32, ptr, ptr }
%struct.anon = type { i8, [3 x i8] }
%struct.ros_conv_info_t = type { ptr, ptr }
%struct.ros_call_response = type { i8, i32, %struct.nstime_t, i32, i32 }
%struct._proto_node = type { ptr, ptr, ptr, ptr, ptr, ptr, ptr }
%struct.field_info = type { ptr, i32, i32, i32, i32, i32, i32, ptr, ptr, ptr, i32, i32 }

@hf_ros_response_in = internal global i32 0, align 4
@hf_ros_response_to = internal global i32 0, align 4
@hf_ros_time = internal global i32 0, align 4
@proto_ros = internal global i32 0, align 4

; Function Attrs: inlinehint nounwind null_pointer_is_valid sspstrong uwtable
define internal void @proto_item_set_generated(ptr noundef %0) #6 {
  %2 = alloca ptr, align 8
  store ptr %0, ptr %2, align 8
  %3 = load ptr, ptr %2, align 8
  %4 = icmp ne ptr %3, null
  br i1 %4, label %5, label %24

5:                                                ; preds = %1
  br label %6

6:                                                ; preds = %5
  %7 = load ptr, ptr %2, align 8
  %8 = getelementptr inbounds nuw %struct._proto_node, ptr %7, i32 0, i32 5
  %9 = load ptr, ptr %8, align 8
  %10 = icmp ne ptr %9, null
  br i1 %10, label %11, label %22

11:                                               ; preds = %6
  %12 = load ptr, ptr %2, align 8
  %13 = getelementptr inbounds nuw %struct._proto_node, ptr %12, i32 0, i32 5
  %14 = load ptr, ptr %13, align 8
  %15 = getelementptr inbounds nuw %struct.field_info, ptr %14, i32 0, i32 6
  %16 = load i32, ptr %15, align 4
  %17 = or i32 %16, 2
  %18 = load ptr, ptr %2, align 8
  %19 = getelementptr inbounds nuw %struct._proto_node, ptr %18, i32 0, i32 5
  %20 = load ptr, ptr %19, align 8
  %21 = getelementptr inbounds nuw %struct.field_info, ptr %20, i32 0, i32 6
  store i32 %17, ptr %21, align 4
  br label %22

22:                                               ; preds = %11, %6
  br label %23

23:                                               ; preds = %22
  br label %24

24:                                               ; preds = %23, %1
  ret void
}

; Function Attrs: null_pointer_is_valid sspstrong uwtable
define internal ptr @ros_match_call_response(ptr noundef %0, ptr noundef %1, ptr noundef %2, i32 noundef %3, i1 noundef zeroext %4) #0 {
  %6 = alloca ptr, align 8
  %7 = alloca ptr, align 8
  %8 = alloca ptr, align 8
  %9 = alloca ptr, align 8
  %10 = alloca i32, align 4
  %11 = alloca i8, align 1
  %12 = alloca %struct.ros_call_response, align 8
  %13 = alloca ptr, align 8
  %14 = alloca ptr, align 8
  %15 = alloca ptr, align 8
  %16 = alloca i32, align 4
  %17 = alloca ptr, align 8
  %18 = alloca %struct.nstime_t, align 8
  store ptr %0, ptr %7, align 8
  store ptr %1, ptr %8, align 8
  store ptr %2, ptr %9, align 8
  store i32 %3, ptr %10, align 4
  %19 = zext i1 %4 to i8
  store i8 %19, ptr %11, align 1
  call void @llvm.lifetime.start.p0(i64 32, ptr %12) #7
  call void @llvm.lifetime.start.p0(i64 8, ptr %13) #7
  store ptr null, ptr %13, align 8
  call void @llvm.lifetime.start.p0(i64 8, ptr %14) #7
  call void @llvm.lifetime.start.p0(i64 8, ptr %15) #7
  %20 = load ptr, ptr %8, align 8
  %21 = call ptr @find_conversation_pinfo(ptr noundef %20, i32 noundef 0)
  store ptr %21, ptr %15, align 8
  %22 = load ptr, ptr %15, align 8
  %23 = icmp eq ptr %22, null
  br i1 %23, label %24, label %25

24:                                               ; preds = %5
  store ptr null, ptr %6, align 8
  store i32 1, ptr %16, align 4
  br label %188

25:                                               ; preds = %5
  %26 = load ptr, ptr %15, align 8
  %27 = load i32, ptr @proto_ros, align 4
  %28 = call ptr @conversation_get_proto_data(ptr noundef %26, i32 noundef %27)
  store ptr %28, ptr %14, align 8
  %29 = load ptr, ptr %14, align 8
  %30 = icmp eq ptr %29, null
  br i1 %30, label %31, label %32

31:                                               ; preds = %25
  store ptr null, ptr %6, align 8
  store i32 1, ptr %16, align 4
  br label %188

32:                                               ; preds = %25
  %33 = load i32, ptr %10, align 4
  %34 = getelementptr inbounds nuw %struct.ros_call_response, ptr %12, i32 0, i32 4
  store i32 %33, ptr %34, align 4
  %35 = load i8, ptr %11, align 1, !range !6, !noundef !7
  %36 = trunc i8 %35 to i1
  %37 = getelementptr inbounds nuw %struct.ros_call_response, ptr %12, i32 0, i32 0
  %38 = zext i1 %36 to i8
  store i8 %38, ptr %37, align 8
  %39 = load i8, ptr %11, align 1, !range !6, !noundef !7
  %40 = trunc i8 %39 to i1
  br i1 %40, label %41, label %47

41:                                               ; preds = %32
  %42 = load ptr, ptr %8, align 8
  %43 = getelementptr inbounds nuw %struct._packet_info, ptr %42, i32 0, i32 3
  %44 = load i32, ptr %43, align 4
  %45 = getelementptr inbounds nuw %struct.ros_call_response, ptr %12, i32 0, i32 1
  store i32 %44, ptr %45, align 4
  %46 = getelementptr inbounds nuw %struct.ros_call_response, ptr %12, i32 0, i32 3
  store i32 0, ptr %46, align 8
  br label %53

47:                                               ; preds = %32
  %48 = getelementptr inbounds nuw %struct.ros_call_response, ptr %12, i32 0, i32 1
  store i32 0, ptr %48, align 4
  %49 = load ptr, ptr %8, align 8
  %50 = getelementptr inbounds nuw %struct._packet_info, ptr %49, i32 0, i32 3
  %51 = load i32, ptr %50, align 4
  %52 = getelementptr inbounds nuw %struct.ros_call_response, ptr %12, i32 0, i32 3
  store i32 %51, ptr %52, align 8
  br label %53

53:                                               ; preds = %47, %41
  %54 = load ptr, ptr %14, align 8
  %55 = getelementptr inbounds nuw %struct.ros_conv_info_t, ptr %54, i32 0, i32 1
  %56 = load ptr, ptr %55, align 8
  %57 = call ptr @wmem_map_lookup(ptr noundef %56, ptr noundef %12)
  store ptr %57, ptr %13, align 8
  %58 = load ptr, ptr %13, align 8
  %59 = icmp ne ptr %58, null
  br i1 %59, label %60, label %67

60:                                               ; preds = %53
  %61 = getelementptr inbounds nuw %struct.ros_call_response, ptr %12, i32 0, i32 0
  %62 = load i8, ptr %61, align 8, !range !6, !noundef !7
  %63 = trunc i8 %62 to i1
  %64 = load ptr, ptr %13, align 8
  %65 = getelementptr inbounds nuw %struct.ros_call_response, ptr %64, i32 0, i32 0
  %66 = zext i1 %63 to i8
  store i8 %66, ptr %65, align 8
  br label %150

67:                                               ; preds = %53
  %68 = load i8, ptr %11, align 1, !range !6, !noundef !7
  %69 = trunc i8 %68 to i1
  br i1 %69, label %70, label %114

70:                                               ; preds = %67
  %71 = load i32, ptr %10, align 4
  %72 = getelementptr inbounds nuw %struct.ros_call_response, ptr %12, i32 0, i32 4
  store i32 %71, ptr %72, align 4
  %73 = load ptr, ptr %14, align 8
  %74 = getelementptr inbounds nuw %struct.ros_conv_info_t, ptr %73, i32 0, i32 0
  %75 = load ptr, ptr %74, align 8
  %76 = call ptr @wmem_map_lookup(ptr noundef %75, ptr noundef %12)
  store ptr %76, ptr %13, align 8
  %77 = load ptr, ptr %13, align 8
  %78 = icmp ne ptr %77, null
  br i1 %78, label %79, label %85

79:                                               ; preds = %70
  %80 = load ptr, ptr %14, align 8
  %81 = getelementptr inbounds nuw %struct.ros_conv_info_t, ptr %80, i32 0, i32 0
  %82 = load ptr, ptr %81, align 8
  %83 = load ptr, ptr %13, align 8
  %84 = call ptr @wmem_map_remove(ptr noundef %82, ptr noundef %83)
  br label %85

85:                                               ; preds = %79, %70
  %86 = load ptr, ptr %13, align 8
  %87 = icmp ne ptr %86, null
  br i1 %87, label %91, label %88

88:                                               ; preds = %85
  %89 = call ptr @wmem_file_scope()
  %90 = call noalias ptr @wmem_alloc(ptr noundef %89, i64 noundef 32) #8
  store ptr %90, ptr %13, align 8
  br label %91

91:                                               ; preds = %88, %85
  %92 = load i32, ptr %10, align 4
  %93 = load ptr, ptr %13, align 8
  %94 = getelementptr inbounds nuw %struct.ros_call_response, ptr %93, i32 0, i32 4
  store i32 %92, ptr %94, align 4
  %95 = load ptr, ptr %8, align 8
  %96 = getelementptr inbounds nuw %struct._packet_info, ptr %95, i32 0, i32 3
  %97 = load i32, ptr %96, align 4
  %98 = load ptr, ptr %13, align 8
  %99 = getelementptr inbounds nuw %struct.ros_call_response, ptr %98, i32 0, i32 1
  store i32 %97, ptr %99, align 4
  %100 = load ptr, ptr %13, align 8
  %101 = getelementptr inbounds nuw %struct.ros_call_response, ptr %100, i32 0, i32 2
  %102 = load ptr, ptr %8, align 8
  %103 = getelementptr inbounds nuw %struct._packet_info, ptr %102, i32 0, i32 4
  call void @llvm.memcpy.p0.p0.i64(ptr align 8 %101, ptr align 8 %103, i64 16, i1 false)
  %104 = load ptr, ptr %13, align 8
  %105 = getelementptr inbounds nuw %struct.ros_call_response, ptr %104, i32 0, i32 3
  store i32 0, ptr %105, align 8
  %106 = load ptr, ptr %13, align 8
  %107 = getelementptr inbounds nuw %struct.ros_call_response, ptr %106, i32 0, i32 0
  store i8 1, ptr %107, align 8
  %108 = load ptr, ptr %14, align 8
  %109 = getelementptr inbounds nuw %struct.ros_conv_info_t, ptr %108, i32 0, i32 0
  %110 = load ptr, ptr %109, align 8
  %111 = load ptr, ptr %13, align 8
  %112 = load ptr, ptr %13, align 8
  %113 = call ptr @wmem_map_insert(ptr noundef %110, ptr noundef %111, ptr noundef %112)
  store ptr null, ptr %6, align 8
  store i32 1, ptr %16, align 4
  br label %188

114:                                              ; preds = %67
  %115 = load i32, ptr %10, align 4
  %116 = getelementptr inbounds nuw %struct.ros_call_response, ptr %12, i32 0, i32 4
  store i32 %115, ptr %116, align 4
  %117 = load ptr, ptr %14, align 8
  %118 = getelementptr inbounds nuw %struct.ros_conv_info_t, ptr %117, i32 0, i32 0
  %119 = load ptr, ptr %118, align 8
  %120 = call ptr @wmem_map_lookup(ptr noundef %119, ptr noundef %12)
  store ptr %120, ptr %13, align 8
  %121 = load ptr, ptr %13, align 8
  %122 = icmp ne ptr %121, null
  br i1 %122, label %123, label %148

123:                                              ; preds = %114
  %124 = load ptr, ptr %13, align 8
  %125 = getelementptr inbounds nuw %struct.ros_call_response, ptr %124, i32 0, i32 3
  %126 = load i32, ptr %125, align 8
  %127 = icmp ne i32 %126, 0
  br i1 %127, label %147, label %128

128:                                              ; preds = %123
  %129 = load ptr, ptr %14, align 8
  %130 = getelementptr inbounds nuw %struct.ros_conv_info_t, ptr %129, i32 0, i32 0
  %131 = load ptr, ptr %130, align 8
  %132 = load ptr, ptr %13, align 8
  %133 = call ptr @wmem_map_remove(ptr noundef %131, ptr noundef %132)
  %134 = load ptr, ptr %8, align 8
  %135 = getelementptr inbounds nuw %struct._packet_info, ptr %134, i32 0, i32 3
  %136 = load i32, ptr %135, align 4
  %137 = load ptr, ptr %13, align 8
  %138 = getelementptr inbounds nuw %struct.ros_call_response, ptr %137, i32 0, i32 3
  store i32 %136, ptr %138, align 8
  %139 = load ptr, ptr %13, align 8
  %140 = getelementptr inbounds nuw %struct.ros_call_response, ptr %139, i32 0, i32 0
  store i8 0, ptr %140, align 8
  %141 = load ptr, ptr %14, align 8
  %142 = getelementptr inbounds nuw %struct.ros_conv_info_t, ptr %141, i32 0, i32 1
  %143 = load ptr, ptr %142, align 8
  %144 = load ptr, ptr %13, align 8
  %145 = load ptr, ptr %13, align 8
  %146 = call ptr @wmem_map_insert(ptr noundef %143, ptr noundef %144, ptr noundef %145)
  br label %147

147:                                              ; preds = %128, %123
  br label %148

148:                                              ; preds = %147, %114
  br label %149

149:                                              ; preds = %148
  br label %150

150:                                              ; preds = %149, %60
  %151 = load ptr, ptr %13, align 8
  %152 = icmp ne ptr %151, null
  br i1 %152, label %153, label %186

153:                                              ; preds = %150
  call void @llvm.lifetime.start.p0(i64 8, ptr %17) #7
  store ptr null, ptr %17, align 8
  %154 = load ptr, ptr %13, align 8
  %155 = getelementptr inbounds nuw %struct.ros_call_response, ptr %154, i32 0, i32 0
  %156 = load i8, ptr %155, align 8, !range !6, !noundef !7
  %157 = trunc i8 %156 to i1
  br i1 %157, label %158, label %167

158:                                              ; preds = %153
  %159 = load ptr, ptr %9, align 8
  %160 = load i32, ptr @hf_ros_response_in, align 4
  %161 = load ptr, ptr %7, align 8
  %162 = load ptr, ptr %13, align 8
  %163 = getelementptr inbounds nuw %struct.ros_call_response, ptr %162, i32 0, i32 3
  %164 = load i32, ptr %163, align 8
  %165 = call ptr @proto_tree_add_uint(ptr noundef %159, i32 noundef %160, ptr noundef %161, i32 noundef 0, i32 noundef 0, i32 noundef %164)
  store ptr %165, ptr %17, align 8
  %166 = load ptr, ptr %17, align 8
  call void @proto_item_set_generated(ptr noundef %166)
  br label %185

167:                                              ; preds = %153
  call void @llvm.lifetime.start.p0(i64 16, ptr %18) #7
  %168 = load ptr, ptr %9, align 8
  %169 = load i32, ptr @hf_ros_response_to, align 4
  %170 = load ptr, ptr %7, align 8
  %171 = load ptr, ptr %13, align 8
  %172 = getelementptr inbounds nuw %struct.ros_call_response, ptr %171, i32 0, i32 1
  %173 = load i32, ptr %172, align 4
  %174 = call ptr @proto_tree_add_uint(ptr noundef %168, i32 noundef %169, ptr noundef %170, i32 noundef 0, i32 noundef 0, i32 noundef %173)
  store ptr %174, ptr %17, align 8
  %175 = load ptr, ptr %17, align 8
  call void @proto_item_set_generated(ptr noundef %175)
  %176 = load ptr, ptr %8, align 8
  %177 = getelementptr inbounds nuw %struct._packet_info, ptr %176, i32 0, i32 4
  %178 = load ptr, ptr %13, align 8
  %179 = getelementptr inbounds nuw %struct.ros_call_response, ptr %178, i32 0, i32 2
  call void @nstime_delta(ptr noundef %18, ptr noundef %177, ptr noundef %179)
  %180 = load ptr, ptr %9, align 8
  %181 = load i32, ptr @hf_ros_time, align 4
  %182 = load ptr, ptr %7, align 8
  %183 = call ptr @proto_tree_add_time(ptr noundef %180, i32 noundef %181, ptr noundef %182, i32 noundef 0, i32 noundef 0, ptr noundef %18)
  store ptr %183, ptr %17, align 8
  %184 = load ptr, ptr %17, align 8
  call void @proto_item_set_generated(ptr noundef %184)
  call void @llvm.lifetime.end.p0(i64 16, ptr %18) #7
  br label %185

185:                                              ; preds = %167, %158
  call void @llvm.lifetime.end.p0(i64 8, ptr %17) #7
  br label %186

186:                                              ; preds = %185, %150
  %187 = load ptr, ptr %13, align 8
  store ptr %187, ptr %6, align 8
  store i32 1, ptr %16, align 4
  br label %188

188:                                              ; preds = %186, %91, %31, %24
  call void @llvm.lifetime.end.p0(i64 8, ptr %15) #7
  call void @llvm.lifetime.end.p0(i64 8, ptr %14) #7
  call void @llvm.lifetime.end.p0(i64 8, ptr %13) #7
  call void @llvm.lifetime.end.p0(i64 32, ptr %12) #7
  %189 = load ptr, ptr %6, align 8
  ret ptr %189
}