; Function Attrs: null_pointer_is_valid sspstrong uwtable
define internal fastcc void @ros_match_call_response(ptr noundef %0, ptr noundef %1, ptr noundef %2, i32 noundef %3, i1 noundef zeroext %4) unnamed_addr #0 {
  %6 = alloca %struct.ros_call_response, align 8
  %7 = alloca %struct.nstime_t, align 8
  %8 = zext i1 %4 to i8
  call void @llvm.lifetime.start.p0(i64 32, ptr nonnull %6) #7
  %9 = tail call ptr @find_conversation_pinfo(ptr noundef %1, i32 noundef 0)
  %10 = icmp eq ptr %9, null
  br i1 %10, label %proto_item_set_generated.exit, label %11

11:                                               ; preds = %5
  %12 = load i32, ptr @proto_ros, align 4
  %13 = tail call ptr @conversation_get_proto_data(ptr noundef nonnull %9, i32 noundef %12)
  %14 = icmp eq ptr %13, null
  br i1 %14, label %proto_item_set_generated.exit, label %15

15:                                               ; preds = %11
  %16 = getelementptr inbounds nuw i8, ptr %6, i64 28
  store i32 %3, ptr %16, align 4
  store i8 %8, ptr %6, align 8
  %17 = getelementptr inbounds nuw i8, ptr %6, i64 24
  %18 = getelementptr inbounds nuw i8, ptr %13, i64 8
  br i1 %4, label %19, label %.thread

19:                                               ; preds = %15
  %20 = getelementptr inbounds nuw i8, ptr %1, i64 20
  %21 = load i32, ptr %20, align 4
  %22 = getelementptr inbounds nuw i8, ptr %6, i64 4
  store i32 %21, ptr %22, align 4
  store i32 0, ptr %17, align 8
  %23 = load ptr, ptr %18, align 8
  %24 = call ptr @wmem_map_lookup(ptr noundef %23, ptr noundef nonnull %6)
  %.not = icmp eq ptr %24, null
  br i1 %.not, label %33, label %30

.thread:                                          ; preds = %15
  %25 = getelementptr inbounds nuw i8, ptr %6, i64 4
  store i32 0, ptr %25, align 4
  %26 = getelementptr inbounds nuw i8, ptr %1, i64 20
  %27 = load i32, ptr %26, align 4
  store i32 %27, ptr %17, align 8
  %28 = load ptr, ptr %18, align 8
  %29 = call ptr @wmem_map_lookup(ptr noundef %28, ptr noundef nonnull %6)
  %.not76 = icmp eq ptr %29, null
  br i1 %.not76, label %.thread77, label %30

30:                                               ; preds = %.thread, %19
  %31 = phi ptr [ %29, %.thread ], [ %24, %19 ]
  %32 = load i8, ptr %6, align 8, !range !10, !noundef !11
  store i8 %32, ptr %31, align 8
  br label %61

33:                                               ; preds = %19
  store i32 %3, ptr %16, align 4
  %34 = load ptr, ptr %13, align 8
  %35 = call ptr @wmem_map_lookup(ptr noundef %34, ptr noundef nonnull %6)
  %.not68 = icmp eq ptr %35, null
  br i1 %.not68, label %.critedge, label %36

36:                                               ; preds = %33
  %37 = load ptr, ptr %13, align 8
  %38 = call ptr @wmem_map_remove(ptr noundef %37, ptr noundef nonnull %35)
  br label %41

.critedge:                                        ; preds = %33
  %39 = call ptr @wmem_file_scope()
  %40 = call noalias dereferenceable_or_null(32) ptr @wmem_alloc(ptr noundef %39, i64 noundef 32) #8
  br label %41

41:                                               ; preds = %36, %.critedge
  %.1 = phi ptr [ %35, %36 ], [ %40, %.critedge ]
  %42 = getelementptr inbounds nuw i8, ptr %.1, i64 28
  store i32 %3, ptr %42, align 4
  %43 = load i32, ptr %20, align 4
  %44 = getelementptr inbounds nuw i8, ptr %.1, i64 4
  store i32 %43, ptr %44, align 4
  %45 = getelementptr inbounds nuw i8, ptr %.1, i64 8
  %46 = getelementptr inbounds nuw i8, ptr %1, i64 24
  call void @llvm.memcpy.p0.p0.i64(ptr noundef nonnull align 8 dereferenceable(16) %45, ptr noundef nonnull align 8 dereferenceable(16) %46, i64 16, i1 false)
  %47 = getelementptr inbounds nuw i8, ptr %.1, i64 24
  store i32 0, ptr %47, align 8
  store i8 1, ptr %.1, align 8
  %48 = load ptr, ptr %13, align 8
  %49 = call ptr @wmem_map_insert(ptr noundef %48, ptr noundef %.1, ptr noundef %.1)
  br label %proto_item_set_generated.exit

.thread77:                                        ; preds = %.thread
  store i32 %3, ptr %16, align 4
  %50 = load ptr, ptr %13, align 8
  %51 = call ptr @wmem_map_lookup(ptr noundef %50, ptr noundef nonnull %6)
  %.not66 = icmp eq ptr %51, null
  br i1 %.not66, label %proto_item_set_generated.exit, label %52

52:                                               ; preds = %.thread77
  %53 = getelementptr inbounds nuw i8, ptr %51, i64 24
  %54 = load i32, ptr %53, align 8
  %.not67 = icmp eq i32 %54, 0
  br i1 %.not67, label %55, label %61

55:                                               ; preds = %52
  %56 = load ptr, ptr %13, align 8
  %57 = call ptr @wmem_map_remove(ptr noundef %56, ptr noundef nonnull %51)
  %58 = load i32, ptr %26, align 4
  store i32 %58, ptr %53, align 8
  store i8 0, ptr %51, align 8
  %59 = load ptr, ptr %18, align 8
  %60 = call ptr @wmem_map_insert(ptr noundef %59, ptr noundef nonnull %51, ptr noundef nonnull %51)
  br label %61

61:                                               ; preds = %30, %52, %55
  %.058.ph = phi ptr [ %51, %55 ], [ %51, %52 ], [ %31, %30 ]
  %62 = load i8, ptr %.058.ph, align 8, !range !10, !noundef !11
  %63 = trunc nuw i8 %62 to i1
  br i1 %63, label %64, label %76

64:                                               ; preds = %61
  %65 = load i32, ptr @hf_ros_response_in, align 4
  %66 = getelementptr inbounds nuw i8, ptr %.058.ph, i64 24
  %67 = load i32, ptr %66, align 8
  %68 = call ptr @proto_tree_add_uint(ptr noundef %2, i32 noundef %65, ptr noundef %0, i32 noundef 0, i32 noundef 0, i32 noundef %67)
  %.not.i = icmp eq ptr %68, null
  br i1 %.not.i, label %proto_item_set_generated.exit, label %69

69:                                               ; preds = %64
  %70 = getelementptr inbounds nuw i8, ptr %68, i64 40
  %71 = load ptr, ptr %70, align 8
  %.not5.i = icmp eq ptr %71, null
  br i1 %.not5.i, label %proto_item_set_generated.exit, label %72

72:                                               ; preds = %69
  %73 = getelementptr inbounds nuw i8, ptr %71, i64 28
  %74 = load i32, ptr %73, align 4
  %75 = or i32 %74, 2
  store i32 %75, ptr %73, align 4
  br label %proto_item_set_generated.exit

76:                                               ; preds = %61
  call void @llvm.lifetime.start.p0(i64 16, ptr nonnull %7) #7
  %77 = load i32, ptr @hf_ros_response_to, align 4
  %78 = getelementptr inbounds nuw i8, ptr %.058.ph, i64 4
  %79 = load i32, ptr %78, align 4
  %80 = call ptr @proto_tree_add_uint(ptr noundef %2, i32 noundef %77, ptr noundef %0, i32 noundef 0, i32 noundef 0, i32 noundef %79)
  %.not.i70 = icmp eq ptr %80, null
  br i1 %.not.i70, label %proto_item_set_generated.exit72, label %81

81:                                               ; preds = %76
  %82 = getelementptr inbounds nuw i8, ptr %80, i64 40
  %83 = load ptr, ptr %82, align 8
  %.not5.i71 = icmp eq ptr %83, null
  br i1 %.not5.i71, label %proto_item_set_generated.exit72, label %84

84:                                               ; preds = %81
  %85 = getelementptr inbounds nuw i8, ptr %83, i64 28
  %86 = load i32, ptr %85, align 4
  %87 = or i32 %86, 2
  store i32 %87, ptr %85, align 4
  br label %proto_item_set_generated.exit72

proto_item_set_generated.exit72:                  ; preds = %76, %81, %84
  %88 = getelementptr inbounds nuw i8, ptr %1, i64 24
  %89 = getelementptr inbounds nuw i8, ptr %.058.ph, i64 8
  call void @nstime_delta(ptr noundef nonnull %7, ptr noundef nonnull %88, ptr noundef nonnull %89)
  %90 = load i32, ptr @hf_ros_time, align 4
  %91 = call ptr @proto_tree_add_time(ptr noundef %2, i32 noundef %90, ptr noundef %0, i32 noundef 0, i32 noundef 0, ptr noundef nonnull %7)
  %.not.i73 = icmp eq ptr %91, null
  br i1 %.not.i73, label %proto_item_set_generated.exit75, label %92

92:                                               ; preds = %proto_item_set_generated.exit72
  %93 = getelementptr inbounds nuw i8, ptr %91, i64 40
  %94 = load ptr, ptr %93, align 8
  %.not5.i74 = icmp eq ptr %94, null
  br i1 %.not5.i74, label %proto_item_set_generated.exit75, label %95

95:                                               ; preds = %92
  %96 = getelementptr inbounds nuw i8, ptr %94, i64 28
  %97 = load i32, ptr %96, align 4
  %98 = or i32 %97, 2
  store i32 %98, ptr %96, align 4
  br label %proto_item_set_generated.exit75

proto_item_set_generated.exit75:                  ; preds = %proto_item_set_generated.exit72, %92, %95
  call void @llvm.lifetime.end.p0(i64 16, ptr nonnull %7) #7
  br label %proto_item_set_generated.exit

proto_item_set_generated.exit:                    ; preds = %72, %69, %64, %.thread77, %proto_item_set_generated.exit75, %11, %5, %41
  call void @llvm.lifetime.end.p0(i64 32, ptr nonnull %6) #7
  ret void
}